Certificate:
    Data:
        Version: 3 (0x2)
        Serial Number: 0 (0x0)
        Signature Algorithm: sha256WithRSAEncryption
        Issuer: CN=My Root CA
        Validity
            Not Before: Jan 22 13:16:50 2025 GMT
            Not After : Jun  9 13:16:50 2052 GMT
        Subject: CN=My Root CA
        Subject Public Key Info:
            Public Key Algorithm: rsaEncryption
                Public-Key: (2048 bit)
                Modulus:
                    00:99:2a:f9:cd:e1:d2:18:93:1f:26:84:7b:af:c9:
                    26:4f:79:c9:2a:47:e0:42:3a:48:d3:76:fc:29:4f:
                    08:45:29:7d:88:ba:f6:9f:28:42:59:a2:0d:56:6f:
                    6d:45:1c:97:20:e5:2f:f4:1a:59:2e:3d:9c:4c:0c:
                    f8:f3:83:95:b9:96:f1:55:81:5e:28:3c:ea:6a:bd:
                    65:08:6f:9f:99:0a:a2:f8:b9:12:05:7f:40:25:28:
                    3f:09:23:a5:c9:9a:0b:6b:46:31:a5:47:5a:c5:62:
                    6f:8f:d8:89:9d:aa:9f:b3:ad:a5:2b:52:5d:82:e1:
                    0c:87:3f:58:d6:82:35:b2:18:ed:21:35:53:b7:a7:
                    73:61:67:08:11:1c:08:df:b7:cc:32:8d:76:4d:b5:
                    20:c5:69:a3:41:7c:de:f6:53:c8:9b:2e:39:fd:1c:
                    e8:de:81:c6:c1:aa:71:b3:70:a8:ac:08:e3:ad:46:
                    1d:da:1a:11:74:bd:94:00:d8:eb:fe:bb:85:02:d3:
                    0b:74:6d:65:b2:35:2f:e9:41:b9:bd:8d:75:22:08:
                    92:35:2f:ed:00:90:55:84:92:ec:cb:f3:43:71:16:
                    61:49:4c:49:c1:d8:f7:49:2d:24:1d:1a:bc:42:55:
                    e4:5c:b5:81:b6:2c:c1:32:00:3a:c7:7d:55:54:b8:
                    12:3d
                Exponent: 65537 (0x10001)
        X509v3 extensions:
            X509v3 Subject Key Identifier:
                5F:58:E3:84:DD:D4:9C:6D:53:29:F7:AD:7D:F4:07:B6:0F:2F:84:25
            X509v3 Basic Constraints: critical
                CA:TRUE
            X509v3 Key Usage: critical
                Certificate Sign
            X509v3 Subject Alternative Name:
                IP Address:127.0.0.1, IP Address:192.168.73.120, IP Address:192.168.73.121
    Signature Algorithm: sha256WithRSAEncryption
    Signature Value:
        44:08:e9:ee:4b:14:74:f6:d6:d5:91:b6:aa:9e:8b:19:6b:70:
        57:c0:72:aa:7f:b1:bf:29:84:da:99:ac:54:9c:d1:b1:d0:43:
        7f:ae:cf:cd:e0:0e:2e:39:11:a7:e1:75:71:3b:81:58:75:81:
        69:2b:ee:19:78:40:16:a1:3f:8e:0a:57:23:18:97:2d:98:46:
        ae:df:5d:6e:3e:00:44:35:aa:2c:12:d6:1a:78:f1:6d:e3:ef:
        17:24:9e:c9:49:6f:82:22:af:7a:ab:71:89:4d:df:59:88:aa:
        45:49:13:24:08:1d:70:99:1c:74:a4:fc:07:24:f7:d2:2d:2c:
        4b:4d:e4:b2:ea:b4:55:cb:9e:1f:1d:7c:ab:15:3f:a8:c0:c9:
        c8:92:d7:b8:92:e7:76:7d:6c:25:6b:9a:ee:54:a5:68:90:e4:
        37:99:cc:32:92:96:d5:f2:84:b4:6e:fd:67:16:c9:8a:e6:ff:
        b4:cf:83:66:98:01:b7:dc:64:72:e8:27:07:06:e5:5f:4a:43:
        5f:3f:94:e4:b9:29:8b:d6:96:9a:62:a2:08:50:aa:da:46:70:
        90:ac:53:64:c7:39:97:0a:81:b7:38:4d:3d:5e:6e:80:fc:88:
        19:09:37:08:21:eb:5c:b3:e4:26:31:76:3a:bc:fd:32:42:28:
        49:6c:df:9c
-----BEGIN CERTIFICATE-----
MIIDBjCCAe6gAwIBAgIBADANBgkqhkiG9w0BAQsFADAVMRMwEQYDVQQDDApNeSBS
b290IENBMCAXDTI1MDEyMjEzMTY1MFoYDzIwNTIwNjA5MTMxNjUwWjAVMRMwEQYD
VQQDDApNeSBSb290IENBMIIBIjANBgkqhkiG9w0BAQEFAAOCAQ8AMIIBCgKCAQEA
mSr5zeHSGJMfJoR7r8kmT3nJKkfgQjpI03b8KU8IRSl9iLr2nyhCWaINVm9tRRyX
IOUv9BpZLj2cTAz484OVuZbxVYFeKDzqar1lCG+fmQqi+LkSBX9AJSg/CSOlyZoL
a0YxpUdaxWJvj9iJnaqfs62lK1JdguEMhz9Y1oI1shjtITVTt6dzYWcIERwI37fM
Mo12TbUgxWmjQXze9lPImy45/Rzo3oHGwapxs3CorAjjrUYd2hoRdL2UANjr/ruF
AtMLdG1lsjUv6UG5vY11IgiSNS/tAJBVhJLsy/NDcRZhSUxJwdj3SS0kHRq8QlXk
XLWBtizBMgA6x31VVLgSPQIDAQABo18wXTAdBgNVHQ4EFgQUX1jjhN3UnG1TKfet
ffQHtg8vhCUwDwYDVR0TAQH/BAUwAwEB/zAOBgNVHQ8BAf8EBAMCAgQwGwYDVR0R
BBQwEocEfwAAAYcEwKhJeIcEwKhJeTANBgkqhkiG9w0BAQsFAAOCAQEARAjp7ksU
dPbW1ZG2qp6LGWtwV8Byqn+xvymE2pmsVJzRsdBDf67PzeAOLjkRp+F1cTuBWHWB
aSvuGXhAFqE/jgpXIxiXLZhGrt9dbj4ARDWqLBLWGnjxbePvFySeyUlvgiKveqtx
iU3fWYiqRUkTJAgdcJkcdKT8ByT30i0sS03ksuq0VcueHx18qxU/qMDJyJLXuJLn
dn1sJWua7lSlaJDkN5nMMpKW1fKEtG79ZxbJiub/tM+DZpgBt9xkcugnBwblX0pD
Xz+U5Lkpi9aWmmKiCFCq2kZwkKxTZMc5lwqBtzhNPV5ugPyIGQk3CCHrXLPkJjF2
Orz9MkIoSWzfnA==
-----END CERTIFICATE-----
