Certificate:
    Data:
        Version: 1 (0x0)
        Serial Number: 2 (0x2)
        Signature Algorithm: sha256WithRSAEncryption
        Issuer: CN=ca-intermediate
        Validity
            Not Before: Jan 22 13:16:51 2025 GMT
            Not After : Jun  9 13:16:51 2052 GMT
        Subject: CN=party_0
        Subject Public Key Info:
            Public Key Algorithm: rsaEncryption
                Public-Key: (2048 bit)
                Modulus:
                    00:bb:0f:07:9e:43:91:c6:ee:29:6f:2b:df:26:8c:
                    9c:c7:4b:08:73:65:12:a5:30:18:0f:5b:2f:4b:5e:
                    e1:20:49:79:1d:2a:f2:fb:e4:26:68:6b:1c:57:36:
                    88:d8:f7:24:38:b3:d0:e7:13:0c:ad:1b:ed:4c:41:
                    4c:a1:b3:13:52:b0:76:85:e9:08:47:6d:0d:10:e1:
                    92:af:0b:6b:34:d2:2c:83:07:50:14:c7:e4:39:c6:
                    23:7d:7a:13:eb:65:01:cb:bf:7b:fb:65:64:bf:33:
                    83:65:ce:36:aa:d6:4d:66:26:60:aa:19:88:84:c9:
                    be:85:dc:8d:14:9a:6b:ae:97:da:02:9b:5e:27:98:
                    2b:85:ed:95:e7:cf:3a:7a:14:4c:41:ce:37:a1:6a:
                    6b:a8:c8:66:a1:2d:4b:d7:d4:29:df:3e:1c:f7:2c:
                    2c:dc:3f:03:3c:8b:e4:b5:26:a2:01:3a:f2:cf:6a:
                    97:83:11:4e:28:8a:c1:21:56:c5:5f:4a:1e:78:0d:
                    51:2c:d2:3c:04:e9:e6:e7:34:4e:18:f2:c9:43:35:
                    51:af:8d:de:50:93:cc:b7:ff:fe:c3:6f:32:f9:f1:
                    06:aa:de:8c:02:da:4b:1f:a7:e2:0b:3b:71:d5:71:
                    3c:73:c9:1b:ff:80:8d:12:95:ba:91:92:ed:ac:d3:
                    f9:99
                Exponent: 65537 (0x10001)
    Signature Algorithm: sha256WithRSAEncryption
    Signature Value:
        80:af:1c:ff:19:d7:c8:24:c2:ef:b0:9a:80:fa:26:f0:8e:b0:
        f3:61:46:80:00:c2:e4:6a:d3:a6:1c:f9:d3:5d:b0:12:fa:fd:
        3f:98:75:d3:64:1b:68:f5:e7:a8:38:39:79:10:b7:19:2b:0b:
        8c:ab:28:97:8a:da:f0:6c:18:23:03:c6:2e:a4:4d:99:30:f9:
        bf:23:c9:38:62:9c:c2:57:54:d3:05:66:c8:d5:62:aa:ba:7a:
        11:a6:6c:ef:a3:be:2a:08:b5:3c:e7:de:45:58:ee:d5:5e:e8:
        2c:dd:ed:ae:de:43:57:a8:7c:3d:1f:c6:b8:94:80:89:4f:b5:
        ac:32:71:8a:f9:71:27:78:9e:a8:56:77:83:26:2e:40:17:0d:
        6c:c1:14:d2:f3:9b:fb:57:6e:7c:d5:24:98:4b:f4:8a:f2:0d:
        c9:c7:f8:47:ff:43:c4:73:7f:bf:95:ac:00:70:5e:58:22:67:
        c5:88:90:97:1b:76:f6:ec:58:a2:2f:da:22:07:56:b5:6a:c7:
        79:41:a9:4a:ac:9b:e0:79:04:d9:16:44:5c:f9:eb:8b:ff:6a:
        78:b5:76:20:6b:90:04:b3:71:cc:94:3d:a0:56:21:aa:ac:8c:
        1d:4a:0c:a5:30:74:39:07:ee:c8:a1:bc:4d:01:81:c2:b6:75:
        26:f1:a3:0c
-----BEGIN CERTIFICATE-----
MIICojCCAYoCAQIwDQYJKoZIhvcNAQELBQAwGjEYMBYGA1UEAwwPY2EtaW50ZXJt
ZWRpYXRlMCAXDTI1MDEyMjEzMTY1MVoYDzIwNTIwNjA5MTMxNjUxWjASMRAwDgYD
VQQDDAdwYXJ0eV8wMIIBIjANBgkqhkiG9w0BAQEFAAOCAQ8AMIIBCgKCAQEAuw8H
nkORxu4pbyvfJoycx0sIc2USpTAYD1svS17hIEl5HSry++QmaGscVzaI2PckOLPQ
5xMMrRvtTEFMobMTUrB2hekIR20NEOGSrwtrNNIsgwdQFMfkOcYjfXoT62UBy797
+2VkvzODZc42qtZNZiZgqhmIhMm+hdyNFJprrpfaApteJ5grhe2V5886ehRMQc43
oWprqMhmoS1L19Qp3z4c9yws3D8DPIvktSaiATryz2qXgxFOKIrBIVbFX0oeeA1R
LNI8BOnm5zROGPLJQzVRr43eUJPMt//+w28y+fEGqt6MAtpLH6fiCztx1XE8c8kb
/4CNEpW6kZLtrNP5mQIDAQABMA0GCSqGSIb3DQEBCwUAA4IBAQCArxz/GdfIJMLv
sJqA+ibwjrDzYUaAAMLkatOmHPnTXbAS+v0/mHXTZBto9eeoODl5ELcZKwuMqyiX
itrwbBgjA8YupE2ZMPm/I8k4YpzCV1TTBWbI1WKqunoRpmzvo74qCLU8595FWO7V
Xugs3e2u3kNXqHw9H8a4lICJT7WsMnGK+XEneJ6oVneDJi5AFw1swRTS85v7V258
1SSYS/SK8g3Jx/hH/0PEc3+/lawAcF5YImfFiJCXG3b27FiiL9oiB1a1asd5QalK
rJvgeQTZFkRc+euL/2p4tXYga5AEs3HMlD2gViGqrIwdSgylMHQ5B+7IobxNAYHC
tnUm8aMM
-----END CERTIFICATE-----
