Certificate:
    Data:
        Version: 3 (0x2)
        Serial Number: 0 (0x0)
        Signature Algorithm: sha256WithRSAEncryption
        Issuer: CN=My Root CA
        Validity
            Not Before: Jan 22 13:18:02 2025 GMT
            Not After : Jun  9 13:18:02 2052 GMT
        Subject: CN=My Root CA
        Subject Public Key Info:
            Public Key Algorithm: rsaEncryption
                Public-Key: (2048 bit)
                Modulus:
                    00:ca:55:3d:3b:ed:3a:61:58:94:30:7e:e6:e1:9c:
                    38:b9:a1:e8:3d:53:a6:75:86:b4:e9:a6:5a:5a:94:
                    6c:fb:ac:e5:f8:2a:d1:49:06:93:ea:76:59:30:4d:
                    67:0b:b4:79:98:e5:1b:f9:65:5e:45:a5:15:3f:84:
                    84:fd:34:1c:e8:4b:07:7b:66:eb:b8:76:3e:2f:42:
                    82:49:59:eb:00:07:fa:ad:cf:fa:60:51:f1:37:18:
                    5e:3b:3a:c1:ed:81:e8:1a:bc:b2:d6:2e:bd:f2:51:
                    b7:21:9b:00:f9:31:61:bd:1b:b2:9d:4b:30:cb:28:
                    41:0a:2c:e1:ad:5a:4c:d6:3a:96:01:04:d6:5c:50:
                    3f:7d:dc:25:b6:a5:f4:43:24:d5:28:ce:83:1c:30:
                    59:ad:18:79:4d:6a:95:5c:14:7b:05:9a:36:2c:b5:
                    e3:3f:20:72:f8:fe:e0:60:09:2e:fe:1c:73:96:4c:
                    ea:6e:e8:e7:ef:3c:65:5a:79:84:c3:cf:aa:ac:27:
                    00:fd:48:24:7e:36:1d:9f:d2:3b:d2:d2:d6:b1:4f:
                    29:e5:3a:4e:f9:de:27:f0:1d:82:a0:e7:35:91:f8:
                    eb:91:99:d8:21:5f:72:f3:82:78:10:6d:9f:6e:bf:
                    62:1a:b2:7f:7b:63:88:2c:32:18:f3:39:a0:e0:f1:
                    88:71
                Exponent: 65537 (0x10001)
        X509v3 extensions:
            X509v3 Subject Key Identifier:
                86:96:27:BA:9E:3A:3B:63:00:9F:E6:FD:6A:6A:F5:42:37:BB:D4:5B
            X509v3 Basic Constraints: critical
                CA:TRUE
            X509v3 Key Usage: critical
                Certificate Sign
            X509v3 Subject Alternative Name:
                IP Address:127.0.0.1, IP Address:192.168.73.120, IP Address:192.168.73.121
    Signature Algorithm: sha256WithRSAEncryption
    Signature Value:
        10:55:9b:7c:ba:e2:ad:18:69:75:5c:97:04:58:68:be:59:5c:
        5f:aa:e1:1a:a2:9c:94:3e:ba:9c:b1:6d:28:a9:14:3f:88:e7:
        15:c9:44:fc:a1:9b:d4:3e:ea:f1:e7:b9:80:fc:af:72:65:e5:
        ff:eb:a0:dd:f5:48:a6:63:ad:36:3b:65:9e:19:ca:ed:87:08:
        4f:08:e1:30:21:26:f6:ac:a5:d1:c7:9c:eb:3a:f9:1c:b6:53:
        0d:6d:53:a2:95:ef:af:95:a8:3e:1e:58:0b:dd:5b:2c:ef:6f:
        43:ba:e9:ac:2f:6d:cf:2b:82:15:00:3c:a3:3e:16:56:12:ff:
        a5:e1:a5:10:92:1f:35:e9:06:02:7b:53:f4:71:13:e8:99:26:
        e0:58:f4:f5:ec:ab:b8:15:76:df:b1:fd:e2:99:0b:3e:d3:80:
        52:c1:d7:ef:b9:af:98:fd:76:4f:9c:68:da:42:62:b3:34:12:
        14:fb:da:0b:79:75:ba:c4:98:3a:5e:14:a4:01:63:2d:d7:23:
        89:ab:bb:83:52:e3:78:4f:97:b2:21:9f:15:a7:d2:2c:31:55:
        c1:8e:9d:ef:24:8f:d8:a9:71:9d:e2:f9:39:98:e5:6d:32:26:
        90:f3:8c:dd:54:0e:84:d4:54:66:b3:36:3e:04:0b:f3:74:54:
        c4:53:bb:26
-----BEGIN CERTIFICATE-----
MIIDBjCCAe6gAwIBAgIBADANBgkqhkiG9w0BAQsFADAVMRMwEQYDVQQDDApNeSBS
b290IENBMCAXDTI1MDEyMjEzMTgwMloYDzIwNTIwNjA5MTMxODAyWjAVMRMwEQYD
VQQDDApNeSBSb290IENBMIIBIjANBgkqhkiG9w0BAQEFAAOCAQ8AMIIBCgKCAQEA
ylU9O+06YViUMH7m4Zw4uaHoPVOmdYa06aZaWpRs+6zl+CrRSQaT6nZZME1nC7R5
mOUb+WVeRaUVP4SE/TQc6EsHe2bruHY+L0KCSVnrAAf6rc/6YFHxNxheOzrB7YHo
Gryy1i698lG3IZsA+TFhvRuynUswyyhBCizhrVpM1jqWAQTWXFA/fdwltqX0QyTV
KM6DHDBZrRh5TWqVXBR7BZo2LLXjPyBy+P7gYAku/hxzlkzqbujn7zxlWnmEw8+q
rCcA/UgkfjYdn9I70tLWsU8p5TpO+d4n8B2CoOc1kfjrkZnYIV9y84J4EG2fbr9i
GrJ/e2OILDIY8zmg4PGIcQIDAQABo18wXTAdBgNVHQ4EFgQUhpYnup46O2MAn+b9
amr1Qje71FswDwYDVR0TAQH/BAUwAwEB/zAOBgNVHQ8BAf8EBAMCAgQwGwYDVR0R
BBQwEocEfwAAAYcEwKhJeIcEwKhJeTANBgkqhkiG9w0BAQsFAAOCAQEAEFWbfLri
rRhpdVyXBFhovllcX6rhGqKclD66nLFtKKkUP4jnFclE/KGb1D7q8ee5gPyvcmXl
/+ug3fVIpmOtNjtlnhnK7YcITwjhMCEm9qyl0cec6zr5HLZTDW1TopXvr5WoPh5Y
C91bLO9vQ7rprC9tzyuCFQA8oz4WVhL/peGlEJIfNekGAntT9HET6Jkm4Fj09eyr
uBV237H94pkLPtOAUsHX77mvmP12T5xo2kJiszQSFPvaC3l1usSYOl4UpAFjLdcj
iau7g1LjeE+XsiGfFafSLDFVwY6d7ySP2KlxneL5OZjlbTImkPOM3VQOhNRUZrM2
PgQL83RUxFO7Jg==
-----END CERTIFICATE-----
Certificate:
    Data:
        Version: 3 (0x2)
        Serial Number: 1 (0x1)
        Signature Algorithm: sha256WithRSAEncryption
        Issuer: CN=My Root CA
        Validity
            Not Before: Jan 22 13:18:03 2025 GMT
            Not After : Jun  9 13:18:03 2052 GMT
        Subject: CN=ca-intermediate
        Subject Public Key Info:
            Public Key Algorithm: rsaEncryption
                Public-Key: (2048 bit)
                Modulus:
                    00:b6:2b:e0:d0:f1:9a:6b:05:10:7a:ff:40:64:c1:
                    11:7c:89:ba:94:d8:00:00:60:9a:00:0e:1d:b1:92:
                    e1:28:22:51:a1:cb:01:7c:15:db:0b:3f:f3:66:73:
                    45:11:1b:16:ab:32:c0:25:5f:10:c8:02:31:b6:b6:
                    73:c3:0e:60:df:61:90:fa:9c:4f:3e:68:43:3d:b4:
                    36:fb:33:ba:64:a1:ab:f2:35:b8:b0:e2:7f:53:bf:
                    f4:5e:e0:6c:f1:ed:ea:1c:fe:a5:a0:87:02:ac:7f:
                    b7:8d:48:20:c4:b1:36:89:e3:cd:90:9f:07:b6:f0:
                    f9:1b:22:6c:a2:7e:b7:cb:83:de:da:51:ff:9d:48:
                    27:72:a4:87:99:06:8a:69:21:d0:4a:f2:e3:87:11:
                    e2:06:ea:6d:a5:1d:cd:fc:4d:54:35:df:4d:a3:4b:
                    50:54:4f:64:73:1c:b0:20:22:93:7c:f5:25:5c:78:
                    02:15:8a:d5:43:8a:9e:27:02:dd:23:5b:2e:8f:cd:
                    e9:83:b8:52:5b:c8:8c:ad:77:d4:86:bc:0d:b4:f3:
                    42:e2:fc:f9:27:8a:28:73:1d:af:9b:a1:f3:03:fb:
                    a1:7b:71:fe:f5:95:c0:f8:4c:ae:67:0d:10:1f:49:
                    e1:e1:9d:93:d2:77:9c:15:2c:7f:35:37:8f:38:3f:
                    7b:e3
                Exponent: 65537 (0x10001)
        X509v3 extensions:
            X509v3 Subject Key Identifier:
                C7:A1:C4:25:93:6A:99:47:44:1F:18:B5:8E:7F:47:DA:AF:C2:AF:3D
            X509v3 Basic Constraints: critical
                CA:TRUE
            X509v3 Key Usage: critical
                Certificate Sign
            X509v3 Subject Alternative Name:
                IP Address:127.0.0.1, IP Address:192.168.73.120, IP Address:192.168.73.121
            X509v3 Authority Key Identifier:
                86:96:27:BA:9E:3A:3B:63:00:9F:E6:FD:6A:6A:F5:42:37:BB:D4:5B
    Signature Algorithm: sha256WithRSAEncryption
    Signature Value:
        5f:78:89:fb:12:a5:1c:31:38:48:ef:9c:83:36:0e:6c:a4:36:
        3e:bb:8b:85:80:08:91:bc:38:e1:8d:2f:d1:42:89:bd:60:6c:
        0b:c5:ef:75:ef:9f:5d:3b:7f:ed:76:d5:98:f8:2e:75:6f:89:
        97:8b:51:fd:a3:41:a3:14:8d:80:15:b6:7f:6c:09:b7:ee:b1:
        17:77:e8:4d:e3:f4:4e:6e:38:4c:6a:3c:f6:fc:6c:26:dd:e0:
        95:b3:f1:7c:94:92:23:17:33:a1:a8:ea:c9:a3:02:9f:57:d1:
        a8:17:e0:ef:c9:d0:48:f4:96:af:16:be:71:0e:24:8a:42:15:
        9a:89:ef:9a:fd:b2:5e:b4:16:d0:dd:aa:5c:20:fa:d9:e8:e9:
        5d:e1:2a:80:e7:f3:cb:02:98:d9:48:be:3d:10:ef:16:96:6e:
        2b:4e:bb:b2:c5:00:6f:65:ec:a4:95:0f:ed:9d:ee:ef:c0:ee:
        2a:68:8b:1c:9c:da:88:a0:a8:58:81:27:e8:95:b0:b2:fb:e0:
        fb:21:5b:49:7c:9f:c3:14:8a:10:d4:a9:87:90:82:f0:1c:49:
        ad:f5:f4:5c:e8:34:61:e0:07:3f:44:a4:4f:ce:aa:ba:70:da:
        da:b3:2a:dd:e3:8b:62:81:2b:47:02:68:99:dd:9d:ef:19:84:
        36:65:8b:17
-----BEGIN CERTIFICATE-----
MIIDLTCCAhWgAwIBAgIBATANBgkqhkiG9w0BAQsFADAVMRMwEQYDVQQDDApNeSBS
b290IENBMCAXDTI1MDEyMjEzMTgwM1oYDzIwNTIwNjA5MTMxODAzWjAaMRgwFgYD
VQQDDA9jYS1pbnRlcm1lZGlhdGUwggEiMA0GCSqGSIb3DQEBAQUAA4IBDwAwggEK
AoIBAQC2K+DQ8ZprBRB6/0BkwRF8ibqU2AAAYJoADh2xkuEoIlGhywF8FdsLP/Nm
c0URGxarMsAlXxDIAjG2tnPDDmDfYZD6nE8+aEM9tDb7M7pkoavyNbiw4n9Tv/Re
4Gzx7eoc/qWghwKsf7eNSCDEsTaJ482Qnwe28PkbImyifrfLg97aUf+dSCdypIeZ
BoppIdBK8uOHEeIG6m2lHc38TVQ1302jS1BUT2RzHLAgIpN89SVceAIVitVDip4n
At0jWy6PzemDuFJbyIytd9SGvA2080Li/PkniihzHa+bofMD+6F7cf71lcD4TK5n
DRAfSeHhnZPSd5wVLH81N484P3vjAgMBAAGjgYAwfjAdBgNVHQ4EFgQUx6HEJZNq
mUdEHxi1jn9H2q/Crz0wDwYDVR0TAQH/BAUwAwEB/zAOBgNVHQ8BAf8EBAMCAgQw
GwYDVR0RBBQwEocEfwAAAYcEwKhJeIcEwKhJeTAfBgNVHSMEGDAWgBSGlie6njo7
YwCf5v1qavVCN7vUWzANBgkqhkiG9w0BAQsFAAOCAQEAX3iJ+xKlHDE4SO+cgzYO
bKQ2PruLhYAIkbw44Y0v0UKJvWBsC8Xvde+fXTt/7XbVmPgudW+Jl4tR/aNBoxSN
gBW2f2wJt+6xF3foTeP0Tm44TGo89vxsJt3glbPxfJSSIxczoajqyaMCn1fRqBfg
78nQSPSWrxa+cQ4kikIVmonvmv2yXrQW0N2qXCD62ejpXeEqgOfzywKY2Ui+PRDv
FpZuK067ssUAb2XspJUP7Z3u78DuKmiLHJzaiKCoWIEn6JWwsvvg+yFbSXyfwxSK
ENSph5CC8BxJrfX0XOg0YeAHP0SkT86qunDa2rMq3eOLYoErRwJomd2d7xmENmWL
Fw==
-----END CERTIFICATE-----
