Certificate:
    Data:
        Version: 1 (0x0)
        Serial Number: 3 (0x3)
        Signature Algorithm: sha256WithRSAEncryption
        Issuer: CN=ca-intermediate
        Validity
            Not Before: Jan 22 13:16:52 2025 GMT
            Not After : Jun  9 13:16:52 2052 GMT
        Subject: CN=party_1
        Subject Public Key Info:
            Public Key Algorithm: rsaEncryption
                Public-Key: (2048 bit)
                Modulus:
                    00:d1:ec:b5:47:2c:40:84:4c:01:ef:05:9c:5c:38:
                    8d:c5:7b:ac:c1:7a:cc:c4:f0:52:e4:87:7d:1b:78:
                    b6:1e:60:f7:d8:ee:57:4f:d4:f1:63:9c:1f:28:0b:
                    a3:a3:e3:7f:47:e2:ce:fb:d5:65:e4:72:80:70:a6:
                    be:f0:98:bb:d9:86:57:f4:dd:30:21:20:48:2b:68:
                    44:f5:89:d1:83:33:ce:21:1e:40:c7:55:bc:9c:73:
                    fb:a9:d0:ff:c8:10:60:0d:88:c4:b1:21:64:77:bf:
                    55:6b:d1:db:b2:bd:b6:89:46:fc:10:7e:e8:e8:e0:
                    60:05:fb:a8:fd:3c:ba:b9:9a:b4:22:73:22:3d:5a:
                    f3:18:07:34:75:e9:12:b6:46:11:ac:95:72:d4:a3:
                    59:02:33:ef:c7:81:5f:41:e1:40:ff:a5:46:95:1f:
                    5c:03:97:9c:c7:27:b6:38:05:a4:50:41:a4:50:04:
                    21:c9:91:08:87:33:51:06:35:e1:7f:bc:39:ca:1d:
                    60:e2:53:4f:de:b8:73:90:dd:c5:f9:a6:10:58:d3:
                    82:79:9f:66:3f:17:41:23:2a:7c:5a:8f:ce:e2:50:
                    be:c3:e5:b5:37:f7:ad:86:88:75:a3:69:ba:df:d4:
                    3b:d6:1a:a5:77:8b:82:2a:78:d3:67:bd:42:5d:4f:
                    a0:2d
                Exponent: 65537 (0x10001)
    Signature Algorithm: sha256WithRSAEncryption
    Signature Value:
        1e:ec:c0:fc:31:ee:92:b4:ad:a9:7e:47:c8:e7:e8:87:9b:f4:
        98:55:46:86:5a:74:14:7c:37:e5:38:d6:0a:66:b8:4b:d8:eb:
        92:5a:10:9e:85:b2:6f:85:c1:56:61:10:6b:12:d0:4b:30:85:
        35:ce:f1:c4:fc:05:bf:6c:50:28:de:ed:6b:ee:02:c9:b9:49:
        ae:56:44:6d:4a:49:89:56:ac:92:ee:d3:70:a6:e7:ba:fb:f1:
        16:87:f1:93:54:70:ca:81:7e:2a:1e:a7:f6:b6:be:32:fa:7e:
        27:5d:76:3c:95:b7:55:9c:24:75:84:92:40:5c:c1:cf:7c:66:
        be:5d:aa:58:14:e2:13:ed:ff:60:43:63:8f:1f:a9:79:46:e8:
        d1:f1:e9:1b:ee:37:02:9f:3b:7e:4e:ec:03:da:4c:15:8f:14:
        47:e0:ca:2f:d7:38:37:38:01:e2:4a:f8:70:a4:90:b9:89:d6:
        0a:7f:1c:55:c5:dc:f3:a5:e3:47:b3:dc:1f:b6:2c:05:ac:30:
        0f:47:48:f9:2f:04:49:9e:23:50:5f:7d:10:8a:b3:72:86:35:
        b0:13:67:b8:9e:8c:e8:8b:99:2e:fe:5a:c7:47:ac:e6:f1:d8:
        24:92:63:d3:77:5e:e2:94:e5:1c:9c:bf:d8:28:2d:6e:00:47:
        a7:39:e0:bb
-----BEGIN CERTIFICATE-----
MIICojCCAYoCAQMwDQYJKoZIhvcNAQELBQAwGjEYMBYGA1UEAwwPY2EtaW50ZXJt
ZWRpYXRlMCAXDTI1MDEyMjEzMTY1MloYDzIwNTIwNjA5MTMxNjUyWjASMRAwDgYD
VQQDDAdwYXJ0eV8xMIIBIjANBgkqhkiG9w0BAQEFAAOCAQ8AMIIBCgKCAQEA0ey1
RyxAhEwB7wWcXDiNxXuswXrMxPBS5Id9G3i2HmD32O5XT9TxY5wfKAujo+N/R+LO
+9Vl5HKAcKa+8Ji72YZX9N0wISBIK2hE9YnRgzPOIR5Ax1W8nHP7qdD/yBBgDYjE
sSFkd79Va9Hbsr22iUb8EH7o6OBgBfuo/Ty6uZq0InMiPVrzGAc0dekStkYRrJVy
1KNZAjPvx4FfQeFA/6VGlR9cA5ecxye2OAWkUEGkUAQhyZEIhzNRBjXhf7w5yh1g
4lNP3rhzkN3F+aYQWNOCeZ9mPxdBIyp8Wo/O4lC+w+W1N/ethoh1o2m639Q71hql
d4uCKnjTZ71CXU+gLQIDAQABMA0GCSqGSIb3DQEBCwUAA4IBAQAe7MD8Me6StK2p
fkfI5+iHm/SYVUaGWnQUfDflONYKZrhL2OuSWhCehbJvhcFWYRBrEtBLMIU1zvHE
/AW/bFAo3u1r7gLJuUmuVkRtSkmJVqyS7tNwpue6+/EWh/GTVHDKgX4qHqf2tr4y
+n4nXXY8lbdVnCR1hJJAXMHPfGa+XapYFOIT7f9gQ2OPH6l5RujR8ekb7jcCnzt+
TuwD2kwVjxRH4Mov1zg3OAHiSvhwpJC5idYKfxxVxdzzpeNHs9wftiwFrDAPR0j5
LwRJniNQX30QirNyhjWwE2e4nozoi5ku/lrHR6zm8dgkkmPTd17ilOUcnL/YKC1u
AEenOeC7
-----END CERTIFICATE-----
