Certificate:
    Data:
        Version: 1 (0x0)
        Serial Number: 2 (0x2)
        Signature Algorithm: sha256WithRSAEncryption
        Issuer: CN=ca-intermediate
        Validity
            Not Before: Jan 22 13:18:03 2025 GMT
            Not After : Jun  9 13:18:03 2052 GMT
        Subject: CN=party_0
        Subject Public Key Info:
            Public Key Algorithm: rsaEncryption
                Public-Key: (2048 bit)
                Modulus:
                    00:e1:36:28:57:96:fb:2a:2c:32:43:e0:98:28:7a:
                    e2:ff:e9:c3:71:91:74:4b:09:4c:2a:df:eb:9d:d6:
                    96:35:cc:83:3e:2f:ca:90:00:7c:dd:80:e2:af:a7:
                    11:d6:07:f9:e0:ed:18:63:02:80:39:57:06:e8:06:
                    94:25:26:ca:9b:61:b4:2c:a6:b4:bf:dd:f3:54:16:
                    a9:33:23:70:73:05:21:59:a9:dc:ea:17:37:08:c6:
                    5c:36:5f:cb:61:cb:80:6f:25:91:c7:b0:3f:0f:e7:
                    28:ef:ad:bc:ea:2d:9e:99:d1:5d:ca:56:cf:03:74:
                    8b:f2:c9:af:28:5a:c9:a8:54:e5:3d:2f:dc:ac:d2:
                    e4:06:49:7b:c6:96:48:b2:e0:2f:d1:d8:94:39:2b:
                    73:e2:88:c9:a0:d7:49:2d:61:12:53:c2:88:b4:67:
                    25:7e:a3:0c:68:16:0d:0c:9b:d9:19:dd:40:8e:2a:
                    0e:08:44:89:ec:16:4d:2c:9c:fa:7f:6d:c2:d6:05:
                    61:44:dc:e3:dd:69:18:0a:49:98:3a:97:91:b9:40:
                    d9:76:96:95:5d:3d:31:e2:f9:be:ee:46:75:91:1f:
                    a4:09:62:42:31:51:19:9b:a7:9d:58:1a:95:6f:3e:
                    30:7d:a9:96:dd:52:57:65:db:e0:71:c1:fb:c8:c5:
                    40:dd
                Exponent: 65537 (0x10001)
    Signature Algorithm: sha256WithRSAEncryption
    Signature Value:
        67:2f:64:e1:50:18:04:ab:e3:85:02:63:02:bc:c0:83:cc:45:
        f0:c1:93:3b:db:ea:34:9d:e9:a6:89:52:36:ba:60:1a:cd:11:
        1b:cb:3b:95:ed:a6:b7:1c:2a:76:18:4e:08:8e:01:58:06:c8:
        73:d7:78:5f:7d:7c:2c:7d:f1:26:27:e6:1a:18:8e:fa:db:f0:
        91:0e:56:fc:90:86:bf:c2:e1:da:bb:28:9b:be:a0:47:c4:cb:
        96:25:83:34:05:1a:52:a8:ef:9f:ea:68:79:e3:c3:0a:d3:3c:
        32:bb:60:79:43:58:64:00:e3:a0:ae:aa:7e:43:85:16:be:ab:
        55:2b:d4:f5:82:2e:22:55:be:df:a0:16:70:ac:fe:65:3a:63:
        22:48:79:47:ef:21:9d:74:21:b1:aa:08:1a:a1:37:fd:53:d5:
        76:66:a6:c7:f2:d0:7a:e7:51:6f:24:4b:02:86:4b:cc:43:cf:
        40:58:7d:32:e4:4d:23:09:a0:d6:07:0e:9e:43:34:d9:e4:d2:
        cd:bb:08:13:cd:f5:38:42:2a:61:53:d2:39:27:66:f7:ef:8c:
        c3:ae:33:b7:26:bf:a1:18:c7:33:34:74:e1:49:61:fe:7d:7a:
        67:19:72:1a:11:29:a2:ba:1f:43:ec:f5:bb:a4:1d:ae:1c:92:
        88:85:79:33
-----BEGIN CERTIFICATE-----
MIICojCCAYoCAQIwDQYJKoZIhvcNAQELBQAwGjEYMBYGA1UEAwwPY2EtaW50ZXJt
ZWRpYXRlMCAXDTI1MDEyMjEzMTgwM1oYDzIwNTIwNjA5MTMxODAzWjASMRAwDgYD
VQQDDAdwYXJ0eV8wMIIBIjANBgkqhkiG9w0BAQEFAAOCAQ8AMIIBCgKCAQEA4TYo
V5b7KiwyQ+CYKHri/+nDcZF0SwlMKt/rndaWNcyDPi/KkAB83YDir6cR1gf54O0Y
YwKAOVcG6AaUJSbKm2G0LKa0v93zVBapMyNwcwUhWanc6hc3CMZcNl/LYcuAbyWR
x7A/D+co76286i2emdFdylbPA3SL8smvKFrJqFTlPS/crNLkBkl7xpZIsuAv0diU
OStz4ojJoNdJLWESU8KItGclfqMMaBYNDJvZGd1AjioOCESJ7BZNLJz6f23C1gVh
RNzj3WkYCkmYOpeRuUDZdpaVXT0x4vm+7kZ1kR+kCWJCMVEZm6edWBqVbz4wfamW
3VJXZdvgccH7yMVA3QIDAQABMA0GCSqGSIb3DQEBCwUAA4IBAQBnL2ThUBgEq+OF
AmMCvMCDzEXwwZM72+o0nemmiVI2umAazREbyzuV7aa3HCp2GE4IjgFYBshz13hf
fXwsffEmJ+YaGI762/CRDlb8kIa/wuHauyibvqBHxMuWJYM0BRpSqO+f6mh548MK
0zwyu2B5Q1hkAOOgrqp+Q4UWvqtVK9T1gi4iVb7foBZwrP5lOmMiSHlH7yGddCGx
qggaoTf9U9V2ZqbH8tB651FvJEsChkvMQ89AWH0y5E0jCaDWBw6eQzTZ5NLNuwgT
zfU4QiphU9I5J2b374zDrjO3Jr+hGMczNHThSWH+fXpnGXIaESmiuh9D7PW7pB2u
HJKIhXkz
-----END CERTIFICATE-----
